target datalayout = "e-m:e-p270:32:32-p271:32:32-p272:64:64-i64:64-i128:128-f80:128-n8:16:32:64-S128"
target triple = "x86_64-pc-linux-gnu"

%struct.rlimit = type { i64, i64 }

@.str = private unnamed_addr constant [132 x i8] c"generated/home/dtcxzyw/WorkSpace/Projects/compilers/llvm-opt-benchmark/bench/abseil-cpp/abseil-cpp/absl/debugging/symbolize_elf.inc\00", align 1
@.str.18 = private unnamed_addr constant [40 x i8] c"Unable to get high fd: rc=%d, limit=%ld\00", align 1

; Function Attrs: inlinehint mustprogress nounwind uwtable
define linkonce_odr dso_local noundef nonnull align 4 dereferenceable(4) ptr @_ZSt3minIiERKT_S2_S2_(ptr noundef nonnull align 4 dereferenceable(4) %0, ptr noundef nonnull align 4 dereferenceable(4) %1) #10 comdat {
  %3 = alloca ptr, align 8
  %4 = alloca ptr, align 8
  %5 = alloca ptr, align 8
  store ptr %0, ptr %4, align 8, !tbaa !82
  store ptr %1, ptr %5, align 8, !tbaa !82
  %6 = load ptr, ptr %5, align 8, !tbaa !82
  %7 = load i32, ptr %6, align 4, !tbaa !10
  %8 = load ptr, ptr %4, align 8, !tbaa !82
  %9 = load i32, ptr %8, align 4, !tbaa !10
  %10 = icmp slt i32 %7, %9
  br i1 %10, label %11, label %13

11:                                               ; preds = %2
  %12 = load ptr, ptr %5, align 8, !tbaa !82
  store ptr %12, ptr %3, align 8
  br label %15

13:                                               ; preds = %2
  %14 = load ptr, ptr %4, align 8, !tbaa !82
  store ptr %14, ptr %3, align 8
  br label %15

15:                                               ; preds = %13, %11
  %16 = load ptr, ptr %3, align 8
  ret ptr %16
}

; Function Attrs: inlinehint mustprogress uwtable
define internal noundef i32 @"_ZZN4absl18debugging_internal12_GLOBAL__N_122OpenReadOnlyWithHighFDEPKcENK3$_0clEv"(ptr noundef nonnull align 1 dereferenceable(1) %0) #7 align 2 {
  %2 = alloca i32, align 4
  %3 = alloca ptr, align 8
  %4 = alloca %struct.rlimit, align 8
  %5 = alloca i32, align 4
  %6 = alloca i32, align 4
  %7 = alloca i32, align 4
  %8 = alloca i32, align 4
  %9 = alloca i32, align 4
  %10 = alloca ptr, align 8
  store ptr %0, ptr %3, align 8, !tbaa !36
  call void @llvm.lifetime.start.p0(i64 16, ptr %4) #17
  call void @llvm.memset.p0.i64(ptr align 8 %4, i8 0, i64 16, i1 false)
  call void @llvm.lifetime.start.p0(i64 4, ptr %5) #17
  %11 = call i32 @getrlimit(i32 noundef 7, ptr noundef %4) #17
  store i32 %11, ptr %5, align 4, !tbaa !10
  %12 = load i32, ptr %5, align 4, !tbaa !10
  %13 = icmp eq i32 %12, 0
  br i1 %13, label %14, label %26

14:                                               ; preds = %1
  %15 = getelementptr inbounds nuw %struct.rlimit, ptr %4, i32 0, i32 0
  %16 = load i64, ptr %15, align 8, !tbaa !175
  %17 = icmp uge i64 %16, 2000
  br i1 %17, label %18, label %26

18:                                               ; preds = %14
  call void @llvm.lifetime.start.p0(i64 4, ptr %6) #17
  %19 = getelementptr inbounds nuw %struct.rlimit, ptr %4, i32 0, i32 0
  %20 = load i64, ptr %19, align 8, !tbaa !175
  %21 = trunc i64 %20 to i32
  store i32 %21, ptr %6, align 4, !tbaa !10
  call void @llvm.lifetime.start.p0(i64 4, ptr %7) #17
  store i32 2000, ptr %7, align 4, !tbaa !10
  call void @llvm.lifetime.start.p0(i64 4, ptr %8) #17
  %22 = load i32, ptr %6, align 4, !tbaa !10
  %23 = sub nsw i32 %22, 1000
  store i32 %23, ptr %8, align 4, !tbaa !10
  %24 = call noundef nonnull align 4 dereferenceable(4) ptr @_ZSt3minIiERKT_S2_S2_(ptr noundef nonnull align 4 dereferenceable(4) %7, ptr noundef nonnull align 4 dereferenceable(4) %8)
  %25 = load i32, ptr %24, align 4, !tbaa !10
  store i32 %25, ptr %2, align 4
  call void @llvm.lifetime.end.p0(i64 4, ptr %8) #17
  call void @llvm.lifetime.end.p0(i64 4, ptr %7) #17
  store i32 1, ptr %9, align 4
  call void @llvm.lifetime.end.p0(i64 4, ptr %6) #17
  br label %33

26:                                               ; preds = %14, %1
  br label %27

27:                                               ; preds = %26
  call void @llvm.lifetime.start.p0(i64 8, ptr %10) #17
  store ptr getelementptr (i8, ptr @.str, i64 114), ptr %10, align 8, !tbaa !4
  %28 = load i32, ptr %5, align 4, !tbaa !10
  %29 = getelementptr inbounds nuw %struct.rlimit, ptr %4, i32 0, i32 0
  %30 = load i64, ptr %29, align 8, !tbaa !175
  call void (i32, ptr, i32, ptr, ...) @_ZN4absl16raw_log_internal6RawLogENS_11LogSeverityEPKciS3_z(i32 noundef 1, ptr noundef getelementptr (i8, ptr @.str, i64 114), i32 noundef 393, ptr noundef @.str.18, i32 noundef %28, i64 noundef %30)
  call void @llvm.lifetime.end.p0(i64 8, ptr %10) #17
  br label %31

31:                                               ; preds = %27
  br label %32

32:                                               ; preds = %31
  store i32 -1, ptr %2, align 4
  store i32 1, ptr %9, align 4
  br label %33

33:                                               ; preds = %32, %18
  call void @llvm.lifetime.end.p0(i64 4, ptr %5) #17
  call void @llvm.lifetime.end.p0(i64 16, ptr %4) #17
  %34 = load i32, ptr %2, align 4
  ret i32 %34
}