; Function Attrs: inlinehint mustprogress uwtable
define internal fastcc noundef range(i32 -2147483648, 2001) i32 @"_ZZN4absl18debugging_internal12_GLOBAL__N_122OpenReadOnlyWithHighFDEPKcENK3$_0clEv"() unnamed_addr #19 align 2 {
  %1 = alloca %struct.rlimit, align 8
  call void @llvm.lifetime.start.p0(i64 16, ptr nonnull %1) #24
  call void @llvm.memset.p0.i64(ptr noundef nonnull align 8 dereferenceable(16) %1, i8 0, i64 16, i1 false)
  %2 = call i32 @getrlimit(i32 noundef 7, ptr noundef nonnull %1) #24
  %3 = icmp eq i32 %2, 0
  %4 = load i64, ptr %1, align 8
  %5 = icmp ugt i64 %4, 1999
  %or.cond = select i1 %3, i1 %5, i1 false
  br i1 %or.cond, label %6, label %9

6:                                                ; preds = %0
  %7 = trunc i64 %4 to i32
  %8 = call i32 @llvm.smin.i32(i32 %7, i32 3000)
  %.sroa.speculated = add nsw i32 %8, -1000
  br label %10

9:                                                ; preds = %0
  call void (i32, ptr, i32, ptr, ...) @_ZN4absl16raw_log_internal6RawLogENS_11LogSeverityEPKciS3_z(i32 noundef 1, ptr noundef nonnull getelementptr inbounds nuw (i8, ptr @.str, i64 114), i32 noundef 393, ptr noundef nonnull @.str.18, i32 noundef %2, i64 noundef %4)
  br label %10

10:                                               ; preds = %9, %6
  %.0 = phi i32 [ %.sroa.speculated, %6 ], [ -1, %9 ]
  call void @llvm.lifetime.end.p0(i64 16, ptr nonnull %1) #24
  ret i32 %.0
}